target datalayout = "e-m:e-p270:32:32-p271:32:32-p272:64:64-i64:64-i128:128-f80:128-n8:16:32:64-S128"
target triple = "x86_64-unknown-linux-gnu"

%"class.std::__shared_count" = type { ptr }
%"class.facebook::velox::exec::Expr" = type <{ ptr, %"class.std::shared_ptr.2", %"class.std::vector.11", %"class.std::__cxx11::basic_string", %"class.std::shared_ptr.5", i8, i8, i8, [5 x i8], %"class.std::vector.16", %"class.std::vector.21", %"class.std::vector.25", %"class.std::unordered_set", i8, i8, i8, i8, [4 x i8], %"class.std::vector.16", %"class.std::map", %"class.std::weak_ptr", ptr, %"class.std::shared_ptr.39", i32, [4 x i8], %"class.std::shared_ptr.39", %"class.std::unique_ptr", %"struct.facebook::velox::exec::ExprStats", i8, i8, [6 x i8] }>
%"class.std::shared_ptr.2" = type { %"class.std::__shared_ptr.3" }
%"class.std::__shared_ptr.3" = type { ptr, %"class.std::__shared_count" }
%"class.std::vector.11" = type { %"struct.std::_Vector_base.12" }
%"struct.std::_Vector_base.12" = type { %"struct.std::_Vector_base<std::shared_ptr<facebook::velox::exec::Expr>, std::allocator<std::shared_ptr<facebook::velox::exec::Expr>>>::_Vector_impl" }
%"struct.std::_Vector_base<std::shared_ptr<facebook::velox::exec::Expr>, std::allocator<std::shared_ptr<facebook::velox::exec::Expr>>>::_Vector_impl" = type { %"struct.std::_Vector_base<std::shared_ptr<facebook::velox::exec::Expr>, std::allocator<std::shared_ptr<facebook::velox::exec::Expr>>>::_Vector_impl_data" }
%"struct.std::_Vector_base<std::shared_ptr<facebook::velox::exec::Expr>, std::allocator<std::shared_ptr<facebook::velox::exec::Expr>>>::_Vector_impl_data" = type { ptr, ptr, ptr }
%"class.std::__cxx11::basic_string" = type { %"struct.std::__cxx11::basic_string<char>::_Alloc_hider", i64, %union.anon }
%"struct.std::__cxx11::basic_string<char>::_Alloc_hider" = type { ptr }
%union.anon = type { i64, [8 x i8] }
%"class.std::shared_ptr.5" = type { %"class.std::__shared_ptr.6" }
%"class.std::__shared_ptr.6" = type { ptr, %"class.std::__shared_count" }
%"class.std::vector.21" = type { %"struct.std::_Bvector_base" }
%"struct.std::_Bvector_base" = type { %"struct.std::_Bvector_base<std::allocator<bool>>::_Bvector_impl" }
%"struct.std::_Bvector_base<std::allocator<bool>>::_Bvector_impl" = type { %"struct.std::_Bvector_base<std::allocator<bool>>::_Bvector_impl_data" }
%"struct.std::_Bvector_base<std::allocator<bool>>::_Bvector_impl_data" = type { %"struct.std::_Bit_iterator", %"struct.std::_Bit_iterator", ptr }
%"struct.std::_Bit_iterator" = type { %"struct.std::_Bit_iterator_base.base", [4 x i8] }
%"struct.std::_Bit_iterator_base.base" = type <{ ptr, i32 }>
%"class.std::vector.25" = type { %"struct.std::_Vector_base.26" }
%"struct.std::_Vector_base.26" = type { %"struct.std::_Vector_base<facebook::velox::exec::FieldReference *, std::allocator<facebook::velox::exec::FieldReference *>>::_Vector_impl" }
%"struct.std::_Vector_base<facebook::velox::exec::FieldReference *, std::allocator<facebook::velox::exec::FieldReference *>>::_Vector_impl" = type { %"struct.std::_Vector_base<facebook::velox::exec::FieldReference *, std::allocator<facebook::velox::exec::FieldReference *>>::_Vector_impl_data" }
%"struct.std::_Vector_base<facebook::velox::exec::FieldReference *, std::allocator<facebook::velox::exec::FieldReference *>>::_Vector_impl_data" = type { ptr, ptr, ptr }
%"class.std::unordered_set" = type { %"class.std::_Hashtable" }
%"class.std::_Hashtable" = type { ptr, i64, %"struct.std::__detail::_Hash_node_base", i64, %"struct.std::__detail::_Prime_rehash_policy", ptr }
%"struct.std::__detail::_Hash_node_base" = type { ptr }
%"struct.std::__detail::_Prime_rehash_policy" = type { float, i64 }
%"class.std::vector.16" = type { %"struct.std::_Vector_base.17" }
%"struct.std::_Vector_base.17" = type { %"struct.std::_Vector_base<std::shared_ptr<facebook::velox::BaseVector>, std::allocator<std::shared_ptr<facebook::velox::BaseVector>>>::_Vector_impl" }
%"struct.std::_Vector_base<std::shared_ptr<facebook::velox::BaseVector>, std::allocator<std::shared_ptr<facebook::velox::BaseVector>>>::_Vector_impl" = type { %"struct.std::_Vector_base<std::shared_ptr<facebook::velox::BaseVector>, std::allocator<std::shared_ptr<facebook::velox::BaseVector>>>::_Vector_impl_data" }
%"struct.std::_Vector_base<std::shared_ptr<facebook::velox::BaseVector>, std::allocator<std::shared_ptr<facebook::velox::BaseVector>>>::_Vector_impl_data" = type { ptr, ptr, ptr }
%"class.std::map" = type { %"class.std::_Rb_tree" }
%"class.std::_Rb_tree" = type { %"struct.std::_Rb_tree<std::vector<const facebook::velox::BaseVector *>, std::pair<const std::vector<const facebook::velox::BaseVector *>, facebook::velox::exec::Expr::SharedResults>, std::_Select1st<std::pair<const std::vector<const facebook::velox::BaseVector *>, facebook::velox::exec::Expr::SharedResults>>, std::less<std::vector<const facebook::velox::BaseVector *>>>::_Rb_tree_impl" }
%"struct.std::_Rb_tree<std::vector<const facebook::velox::BaseVector *>, std::pair<const std::vector<const facebook::velox::BaseVector *>, facebook::velox::exec::Expr::SharedResults>, std::_Select1st<std::pair<const std::vector<const facebook::velox::BaseVector *>, facebook::velox::exec::Expr::SharedResults>>, std::less<std::vector<const facebook::velox::BaseVector *>>>::_Rb_tree_impl" = type { %"struct.std::_Rb_tree_key_compare", %"struct.std::_Rb_tree_header" }
%"struct.std::_Rb_tree_key_compare" = type { %"struct.std::less" }
%"struct.std::less" = type { i8 }
%"struct.std::_Rb_tree_header" = type { %"struct.std::_Rb_tree_node_base", i64 }
%"struct.std::_Rb_tree_node_base" = type { i32, ptr, ptr, ptr }
%"class.std::weak_ptr" = type { %"class.std::__weak_ptr" }
%"class.std::__weak_ptr" = type { ptr, %"class.std::__weak_count" }
%"class.std::__weak_count" = type { ptr }
%"class.std::shared_ptr.39" = type { %"class.std::__shared_ptr.40" }
%"class.std::__shared_ptr.40" = type { ptr, %"class.std::__shared_count" }
%"class.std::unique_ptr" = type { %"struct.std::__uniq_ptr_data" }
%"struct.std::__uniq_ptr_data" = type { %"class.std::__uniq_ptr_impl" }
%"class.std::__uniq_ptr_impl" = type { %"class.std::tuple" }
%"class.std::tuple" = type { %"struct.std::_Tuple_impl" }
%"struct.std::_Tuple_impl" = type { %"struct.std::_Head_base.43" }
%"struct.std::_Head_base.43" = type { ptr }
%"struct.facebook::velox::exec::ExprStats" = type { %"struct.facebook::velox::CpuWallTiming", i64, i64 }
%"struct.facebook::velox::CpuWallTiming" = type { i64, i64, i64 }
%"class.std::__cxx11::basic_stringstream" = type { %"class.std::basic_iostream.base", %"class.std::__cxx11::basic_stringbuf", %"class.std::basic_ios" }
%"class.std::basic_iostream.base" = type { %"class.std::basic_istream.base", %"class.std::basic_ostream.base" }
%"class.std::basic_istream.base" = type { ptr, i64 }
%"class.std::basic_ostream.base" = type { ptr }
%"class.std::__cxx11::basic_stringbuf" = type { %"class.std::basic_streambuf", i32, %"class.std::__cxx11::basic_string" }
%"class.std::basic_streambuf" = type { ptr, ptr, ptr, ptr, ptr, ptr, ptr, %"class.std::locale" }
%"class.std::locale" = type { ptr }
%"class.std::basic_ios" = type { %"class.std::ios_base", ptr, i8, i8, ptr, ptr, ptr, ptr }
%"class.std::ios_base" = type { ptr, i64, i64, i32, i32, i32, ptr, %"struct.std::ios_base::_Words", [8 x %"struct.std::ios_base::_Words"], i32, ptr, %"class.std::locale" }
%"struct.std::ios_base::_Words" = type { ptr, i64 }

; Function Attrs: mustprogress uwtable
define void @_ZNK8facebook5velox4exec4Expr8toStringB5cxx11Eb(ptr noalias sret(%"class.std::__cxx11::basic_string") align 8 %agg.result, ptr noundef nonnull align 8 dereferenceable(442) %this, i1 noundef zeroext %recursive) unnamed_addr #4 align 2 personality ptr @__gxx_personality_v0 {
entry:
  %result.ptr = alloca ptr, align 8
  %this.addr = alloca ptr, align 8
  %recursive.addr = alloca i8, align 1
  %out = alloca %"class.std::__cxx11::basic_stringstream", align 8
  %exn.slot = alloca ptr, align 8
  %ehselector.slot = alloca i32, align 4
  store ptr %agg.result, ptr %result.ptr, align 8
  store ptr %this, ptr %this.addr, align 8
  %frombool = zext i1 %recursive to i8
  store i8 %frombool, ptr %recursive.addr, align 1
  %this1 = load ptr, ptr %this.addr, align 8
  %0 = load i8, ptr %recursive.addr, align 1
  %tobool = trunc i8 %0 to i1
  br i1 %tobool, label %if.then, label %if.end

if.then:                                          ; preds = %entry
  call void @_ZNSt7__cxx1118basic_stringstreamIcSt11char_traitsIcESaIcEEC1Ev(ptr noundef nonnull align 8 dereferenceable(128) %out)
  %add.ptr = getelementptr inbounds i8, ptr %out, i64 16
  %name_ = getelementptr inbounds %"class.facebook::velox::exec::Expr", ptr %this1, i32 0, i32 3
  %call = invoke noundef nonnull align 8 dereferenceable(8) ptr @_ZStlsIcSt11char_traitsIcESaIcEERSt13basic_ostreamIT_T0_ES7_RKNSt7__cxx1112basic_stringIS4_S5_T1_EE(ptr noundef nonnull align 8 dereferenceable(8) %add.ptr, ptr noundef nonnull align 8 dereferenceable(32) %name_)
          to label %invoke.cont unwind label %lpad

invoke.cont:                                      ; preds = %if.then
  invoke void @_ZNK8facebook5velox4exec4Expr12appendInputsERNSt7__cxx1118basic_stringstreamIcSt11char_traitsIcESaIcEEE(ptr noundef nonnull align 8 dereferenceable(442) %this1, ptr noundef nonnull align 8 dereferenceable(128) %out)
          to label %invoke.cont2 unwind label %lpad

invoke.cont2:                                     ; preds = %invoke.cont
  invoke void @_ZNKSt7__cxx1118basic_stringstreamIcSt11char_traitsIcESaIcEE3strEv(ptr sret(%"class.std::__cxx11::basic_string") align 8 %agg.result, ptr noundef nonnull align 8 dereferenceable(128) %out)
          to label %invoke.cont3 unwind label %lpad

invoke.cont3:                                     ; preds = %invoke.cont2
  call void @_ZNSt7__cxx1118basic_stringstreamIcSt11char_traitsIcESaIcEED1Ev(ptr noundef nonnull align 8 dereferenceable(128) %out) #3
  br label %return

lpad:                                             ; preds = %invoke.cont2, %invoke.cont, %if.then
  %1 = landingpad { ptr, i32 }
          cleanup
  %2 = extractvalue { ptr, i32 } %1, 0
  store ptr %2, ptr %exn.slot, align 8
  %3 = extractvalue { ptr, i32 } %1, 1
  store i32 %3, ptr %ehselector.slot, align 4
  call void @_ZNSt7__cxx1118basic_stringstreamIcSt11char_traitsIcESaIcEED1Ev(ptr noundef nonnull align 8 dereferenceable(128) %out) #3
  br label %eh.resume

if.end:                                           ; preds = %entry
  %name_4 = getelementptr inbounds %"class.facebook::velox::exec::Expr", ptr %this1, i32 0, i32 3
  call void @_ZNSt7__cxx1112basic_stringIcSt11char_traitsIcESaIcEEC1ERKS4_(ptr noundef nonnull align 8 dereferenceable(32) %agg.result, ptr noundef nonnull align 8 dereferenceable(32) %name_4)
  br label %return

return:                                           ; preds = %if.end, %invoke.cont3
  ret void

eh.resume:                                        ; preds = %lpad
  %exn = load ptr, ptr %exn.slot, align 8
  %sel = load i32, ptr %ehselector.slot, align 4
  %lpad.val = insertvalue { ptr, i32 } poison, ptr %exn, 0
  %lpad.val5 = insertvalue { ptr, i32 } %lpad.val, i32 %sel, 1
  resume { ptr, i32 } %lpad.val5
}